Certificate:
    Data:
        Version: 3 (0x2)
        Serial Number: 4 (0x4)
    Signature Algorithm: sha256WithRSAEncryption
        Issuer: C=IN, ST=Telangana, O=Indian Institute of Technology, Hyderabad, CN=INTERCSE
        Validity
            Not Before: Apr  2 16:59:48 2017 GMT
            Not After : Apr  2 16:59:48 2018 GMT
        Subject: C=IN, ST=Telangana, O=Indian Institute of Technology, Hyderabad, CN=CSE
        Subject Public Key Info:
            Public Key Algorithm: rsaEncryption
                Public-Key: (2048 bit)
                Modulus:
                    00:c2:ca:d0:08:e7:1a:55:1b:fb:29:fe:e0:cd:55:
                    8a:5e:45:ff:5c:51:5f:10:ee:19:1e:1d:82:f5:08:
                    50:75:4b:d3:3a:51:26:e0:c5:b0:3d:95:c7:7e:c3:
                    f9:46:31:7c:54:c7:ed:37:51:ee:25:5a:6e:ff:6a:
                    9a:7a:4d:08:b4:65:c8:fc:eb:04:f4:9f:73:52:71:
                    2b:88:6e:d8:84:91:cb:2d:79:3a:f7:2d:fd:03:ca:
                    64:5d:52:1e:75:a8:2f:18:00:4a:ea:71:b2:01:75:
                    b8:b5:0e:e4:f4:35:04:e1:2d:3c:c4:40:b3:84:36:
                    7d:e6:b7:9c:89:2c:a2:60:5e:8d:8c:33:29:fa:0f:
                    8a:b4:a7:3f:4f:59:d9:a4:64:36:ce:a7:b5:88:10:
                    e2:47:93:5d:02:3d:59:e2:79:b8:f5:1e:13:2f:10:
                    f6:35:1e:f8:00:fd:b9:3e:67:e9:80:fc:51:da:73:
                    78:b7:3b:f1:35:29:ca:2a:23:29:64:97:e9:28:76:
                    0b:c6:5f:4f:60:c7:0c:b5:99:5c:56:c4:a8:6e:5b:
                    07:05:1a:68:b6:1c:6b:b6:ae:18:17:39:b9:0c:e5:
                    a9:b0:1a:01:e2:30:00:55:b3:d2:a4:8e:6a:16:67:
                    e0:09:1d:f8:a3:00:75:ba:4b:d2:45:dc:c6:3c:77:
                    40:df
                Exponent: 65537 (0x10001)
        X509v3 extensions:
            X509v3 Basic Constraints: 
                CA:FALSE
            Netscape Comment: 
                OpenSSL Generated Certificate
            X509v3 Subject Key Identifier: 
                75:15:5B:DA:60:4D:47:E0:3F:0E:39:78:B5:68:2B:6D:C7:BE:34:09
            X509v3 Authority Key Identifier: 
                keyid:8F:29:89:BB:AB:30:0D:FC:D1:9F:F1:75:6F:4D:A7:FF:71:D3:4C:21

    Signature Algorithm: sha256WithRSAEncryption
         4b:e1:f0:f6:23:75:98:6d:d5:1f:10:48:d9:3c:cc:48:c7:de:
         72:24:22:ea:2d:48:cb:23:11:f2:d4:d2:5e:eb:5f:e6:e8:64:
         8d:2e:62:07:81:43:de:3f:4e:37:93:d8:c3:f5:71:de:40:c8:
         b2:d5:79:a4:db:d0:91:e7:fd:d5:29:7a:e6:a6:ee:fd:36:0f:
         63:65:f2:ae:4b:80:61:fc:49:19:5e:86:e0:39:ab:c7:9b:6a:
         84:5c:a3:32:74:32:0d:4d:97:c4:12:14:00:0e:01:73:31:46:
         42:d7:9b:52:08:c3:f4:61:41:47:73:a7:62:75:db:19:a2:08:
         1c:1a:f6:92:42:2c:68:48:e2:a0:cb:c6:01:e0:82:6d:1c:ab:
         1b:1e:59:7a:47:8d:af:f3:56:9d:25:d3:55:c2:b2:f6:6b:5a:
         d7:fd:7a:c8:a1:c5:bd:74:b1:d5:ec:ae:2c:36:ad:ac:e3:80:
         23:0e:11:ca:1e:b9:de:e3:ec:85:4d:08:ff:c1:ff:3f:fd:88:
         32:44:a9:eb:02:93:7c:6e:4c:eb:68:f4:f7:ee:e6:e4:2e:35:
         f8:4c:33:dd:91:65:37:4a:7a:51:8d:b2:24:47:d1:de:d1:95:
         60:80:77:cb:5e:a8:dc:71:d7:0f:a9:3e:da:e5:2f:ea:1d:76:
         57:2b:33:5c
-----BEGIN CERTIFICATE-----
MIIDwTCCAqmgAwIBAgIBBDANBgkqhkiG9w0BAQsFADBoMQswCQYDVQQGEwJJTjES
MBAGA1UECAwJVGVsYW5nYW5hMTIwMAYDVQQKDClJbmRpYW4gSW5zdGl0dXRlIG9m
IFRlY2hub2xvZ3ksIEh5ZGVyYWJhZDERMA8GA1UEAwwISU5URVJDU0UwHhcNMTcw
NDAyMTY1OTQ4WhcNMTgwNDAyMTY1OTQ4WjBjMQswCQYDVQQGEwJJTjESMBAGA1UE
CAwJVGVsYW5nYW5hMTIwMAYDVQQKDClJbmRpYW4gSW5zdGl0dXRlIG9mIFRlY2hu
b2xvZ3ksIEh5ZGVyYWJhZDEMMAoGA1UEAwwDQ1NFMIIBIjANBgkqhkiG9w0BAQEF
AAOCAQ8AMIIBCgKCAQEAwsrQCOcaVRv7Kf7gzVWKXkX/XFFfEO4ZHh2C9QhQdUvT
OlEm4MWwPZXHfsP5RjF8VMftN1HuJVpu/2qaek0ItGXI/OsE9J9zUnEriG7YhJHL
LXk69y39A8pkXVIedagvGABK6nGyAXW4tQ7k9DUE4S08xECzhDZ95reciSyiYF6N
jDMp+g+KtKc/T1nZpGQ2zqe1iBDiR5NdAj1Z4nm49R4TLxD2NR74AP25PmfpgPxR
2nN4tzvxNSnKKiMpZJfpKHYLxl9PYMcMtZlcVsSoblsHBRpothxrtq4YFzm5DOWp
sBoB4jAAVbPSpI5qFmfgCR34owB1ukvSRdzGPHdA3wIDAQABo3sweTAJBgNVHRME
AjAAMCwGCWCGSAGG+EIBDQQfFh1PcGVuU1NMIEdlbmVyYXRlZCBDZXJ0aWZpY2F0
ZTAdBgNVHQ4EFgQUdRVb2mBNR+A/Djl4tWgrbce+NAkwHwYDVR0jBBgwFoAUjymJ
u6swDfzRn/F1b02n/3HTTCEwDQYJKoZIhvcNAQELBQADggEBAEvh8PYjdZht1R8Q
SNk8zEjH3nIkIuotSMsjEfLU0l7rX+boZI0uYgeBQ94/TjeT2MP1cd5AyLLVeaTb
0JHn/dUpeuam7v02D2Nl8q5LgGH8SRlehuA5q8ebaoRcozJ0Mg1Nl8QSFAAOAXMx
RkLXm1IIw/RhQUdzp2J12xmiCBwa9pJCLGhI4qDLxgHggm0cqxseWXpHja/zVp0l
01XCsvZrWtf9esihxb10sdXsriw2razjgCMOEcoeud7j7IVNCP/B/z/9iDJEqesC
k3xuTOto9Pfu5uQuNfhMM92RZTdKelGNsiRH0d7RlWCAd8teqNxx1w+pPtrlL+od
dlcrM1w=
-----END CERTIFICATE-----
