Certificate:
    Data:
        Version: 3 (0x2)
        Serial Number: 2 (0x2)
    Signature Algorithm: sha256WithRSAEncryption
        Issuer: C=IN, ST=Telangana, O=Indian Institute of Technology, Hyderabad, CN=INTEREE
        Validity
            Not Before: Apr  2 17:21:30 2017 GMT
            Not After : Apr  2 17:21:30 2018 GMT
        Subject: C=IN, ST=Telangana, O=Indian Institute of Technology, Hyderabad, CN=EE
        Subject Public Key Info:
            Public Key Algorithm: rsaEncryption
                Public-Key: (2048 bit)
                Modulus:
                    00:de:7a:e5:15:c7:aa:a9:e1:0e:ac:2a:e4:17:05:
                    59:80:84:d4:f2:20:99:14:a5:ff:25:5a:46:13:00:
                    d6:c4:8d:a0:64:12:c7:e9:1c:27:74:1e:76:7a:14:
                    08:d0:8d:5e:a6:e3:39:21:43:a4:de:46:5d:94:d4:
                    b7:bc:84:ab:4e:96:16:46:de:05:18:85:bc:9e:ee:
                    7b:97:cb:99:5f:a7:38:f5:67:f5:03:a3:37:a4:b9:
                    49:73:bd:cc:d5:67:f6:86:90:0d:f0:dc:d7:38:b6:
                    6e:ad:23:be:0d:8f:79:33:7d:9e:58:e2:06:cf:3b:
                    cd:04:bf:7b:80:85:ee:17:6c:d9:77:d7:9c:4b:ed:
                    e9:35:c7:65:c1:98:83:bd:8a:9c:1f:20:7a:ce:b8:
                    ba:b8:6e:af:89:15:6a:da:56:93:51:1d:ba:a7:be:
                    8c:38:a7:f9:8c:b8:8c:b9:e7:31:88:03:59:36:8a:
                    ee:dc:dd:3c:dc:f4:f3:cb:8c:b7:f5:5c:01:1e:1e:
                    eb:3f:ef:78:0a:1c:58:fa:93:83:ba:88:6b:55:eb:
                    50:87:86:72:b9:78:21:a7:dd:74:a1:5a:39:ce:fc:
                    64:8b:15:c6:6d:ac:75:55:dc:58:d8:47:1e:68:4e:
                    0b:67:7f:e1:34:6b:41:4e:52:c4:9b:49:97:7b:ef:
                    d6:61
                Exponent: 65537 (0x10001)
        X509v3 extensions:
            X509v3 Basic Constraints: 
                CA:FALSE
            Netscape Comment: 
                OpenSSL Generated Certificate
            X509v3 Subject Key Identifier: 
                8E:9D:DC:44:29:F5:DE:E2:05:25:53:AB:1B:FC:14:83:39:00:1E:6E
            X509v3 Authority Key Identifier: 
                keyid:D5:A6:9D:65:AA:5A:5D:20:EE:16:30:E1:92:B7:54:57:44:11:46:41

    Signature Algorithm: sha256WithRSAEncryption
         00:17:9e:10:c1:48:21:ed:77:68:0d:28:c8:a4:3a:1d:4a:21:
         e9:7b:13:74:ef:76:e5:b1:67:21:4b:64:e9:84:19:ee:51:49:
         0a:ee:76:10:96:ff:e6:96:0d:ac:2a:57:83:ab:88:da:5c:02:
         6e:a9:ab:18:84:99:21:f8:23:8c:30:be:c7:1d:94:fb:df:87:
         d1:e8:90:30:9f:5e:6b:49:7a:7a:c3:15:c4:9c:6e:31:e8:80:
         3e:d6:27:2d:64:7a:79:39:09:54:98:ab:c5:82:b4:f7:20:9b:
         c5:97:18:cc:08:9a:b8:ea:9a:8a:e6:f9:79:31:55:cc:1d:0d:
         0e:ab:ac:a4:c0:5e:e2:9c:25:7f:6a:75:45:25:88:a4:65:52:
         21:e4:d6:3b:d2:4a:e8:27:08:3e:9a:a1:37:66:49:ce:71:c3:
         d1:75:20:c1:0e:c6:6e:56:19:aa:ea:30:1e:63:c5:5d:63:80:
         78:c2:09:cc:51:7e:c1:5d:50:b3:41:9d:e2:c3:e7:19:03:5a:
         6e:8b:54:6b:4e:de:50:16:b4:c6:92:70:7d:e0:5a:a2:be:c0:
         87:a7:cd:f2:69:7b:29:da:e7:d2:f0:ab:bb:12:c5:9c:b7:d4:
         dc:94:0f:56:34:9e:f7:65:19:2b:95:c0:97:d3:69:0d:63:49:
         e7:72:f8:db
-----BEGIN CERTIFICATE-----
MIIDvzCCAqegAwIBAgIBAjANBgkqhkiG9w0BAQsFADBnMQswCQYDVQQGEwJJTjES
MBAGA1UECAwJVGVsYW5nYW5hMTIwMAYDVQQKDClJbmRpYW4gSW5zdGl0dXRlIG9m
IFRlY2hub2xvZ3ksIEh5ZGVyYWJhZDEQMA4GA1UEAwwHSU5URVJFRTAeFw0xNzA0
MDIxNzIxMzBaFw0xODA0MDIxNzIxMzBaMGIxCzAJBgNVBAYTAklOMRIwEAYDVQQI
DAlUZWxhbmdhbmExMjAwBgNVBAoMKUluZGlhbiBJbnN0aXR1dGUgb2YgVGVjaG5v
bG9neSwgSHlkZXJhYmFkMQswCQYDVQQDDAJFRTCCASIwDQYJKoZIhvcNAQEBBQAD
ggEPADCCAQoCggEBAN565RXHqqnhDqwq5BcFWYCE1PIgmRSl/yVaRhMA1sSNoGQS
x+kcJ3QednoUCNCNXqbjOSFDpN5GXZTUt7yEq06WFkbeBRiFvJ7ue5fLmV+nOPVn
9QOjN6S5SXO9zNVn9oaQDfDc1zi2bq0jvg2PeTN9nljiBs87zQS/e4CF7hds2XfX
nEvt6TXHZcGYg72KnB8ges64urhur4kVatpWk1Eduqe+jDin+Yy4jLnnMYgDWTaK
7tzdPNz088uMt/VcAR4e6z/veAocWPqTg7qIa1XrUIeGcrl4IafddKFaOc78ZIsV
xm2sdVXcWNhHHmhOC2d/4TRrQU5SxJtJl3vv1mECAwEAAaN7MHkwCQYDVR0TBAIw
ADAsBglghkgBhvhCAQ0EHxYdT3BlblNTTCBHZW5lcmF0ZWQgQ2VydGlmaWNhdGUw
HQYDVR0OBBYEFI6d3EQp9d7iBSVTqxv8FIM5AB5uMB8GA1UdIwQYMBaAFNWmnWWq
Wl0g7hYw4ZK3VFdEEUZBMA0GCSqGSIb3DQEBCwUAA4IBAQAAF54QwUgh7XdoDSjI
pDodSiHpexN073blsWchS2TphBnuUUkK7nYQlv/mlg2sKleDq4jaXAJuqasYhJkh
+COMML7HHZT734fR6JAwn15rSXp6wxXEnG4x6IA+1ictZHp5OQlUmKvFgrT3IJvF
lxjMCJq46pqK5vl5MVXMHQ0Oq6ykwF7inCV/anVFJYikZVIh5NY70kroJwg+mqE3
ZknOccPRdSDBDsZuVhmq6jAeY8VdY4B4wgnMUX7BXVCzQZ3iw+cZA1pui1RrTt5Q
FrTGknB94FqivsCHp83yaXsp2ufS8Ku7EsWct9TclA9WNJ73ZRkrlcCX02kNY0nn
cvjb
-----END CERTIFICATE-----
