Certificate:
    Data:
        Version: 3 (0x2)
        Serial Number: 3 (0x3)
    Signature Algorithm: sha256WithRSAEncryption
        Issuer: C=IN, ST=Telangana, O=Indian Institute of Technology, Hyderabad, CN=rootCA
        Validity
            Not Before: Apr  2 15:45:23 2017 GMT
            Not After : Apr  2 15:45:23 2018 GMT
        Subject: C=IN, ST=Telangana, O=Indian Institute of Technology, Hyderabad, CN=INTERCSE
        Subject Public Key Info:
            Public Key Algorithm: rsaEncryption
                Public-Key: (2048 bit)
                Modulus:
                    00:c5:ac:ea:4e:a1:e4:c5:50:ac:19:a4:fa:be:9f:
                    d6:d5:48:08:9b:56:96:04:ba:b9:d2:3d:18:10:e4:
                    a1:fb:8a:d9:a9:3a:6e:0e:9a:fc:cc:2b:96:1d:84:
                    3c:c4:52:82:c8:9f:b3:0a:f1:d1:4f:97:a5:95:1a:
                    d9:55:b0:d8:d6:d3:25:7f:99:5c:37:ef:57:23:5d:
                    17:37:6a:a6:26:ad:00:17:f9:18:de:b5:cd:9e:cd:
                    89:2b:89:d1:f5:7a:10:5e:52:85:8c:69:e1:f3:03:
                    de:f6:db:c8:4c:bf:60:a7:74:b1:7d:d8:9d:e2:5b:
                    47:94:67:81:75:a8:f4:53:43:5e:1f:59:04:3d:3c:
                    d6:32:0e:fa:33:33:9c:d6:5c:3e:4b:9c:4e:75:3c:
                    55:56:06:d1:c7:ff:7f:b6:70:8c:b0:76:ea:22:3c:
                    b6:3d:b5:b7:0c:cd:19:6f:bf:24:17:69:f6:bf:96:
                    fc:c3:cc:d9:fb:90:1c:43:19:4e:d6:98:df:26:db:
                    d1:86:e7:a9:e5:58:70:28:6c:8d:83:98:c0:95:c5:
                    64:06:23:35:38:9f:d5:f1:ab:d4:68:60:55:88:49:
                    04:55:3f:4a:6e:43:92:fa:d0:d3:65:a9:dc:4e:6b:
                    6a:dd:3e:dd:2d:db:7d:d4:0b:c4:a2:09:bc:22:c3:
                    08:2b
                Exponent: 65537 (0x10001)
        X509v3 extensions:
            X509v3 Basic Constraints: 
                CA:TRUE
            Netscape Comment: 
                OpenSSL Generated Certificate
            X509v3 Subject Key Identifier: 
                8F:29:89:BB:AB:30:0D:FC:D1:9F:F1:75:6F:4D:A7:FF:71:D3:4C:21
            X509v3 Authority Key Identifier: 
                keyid:47:5C:3B:5E:AA:70:08:9E:81:AF:D3:48:9D:9C:A1:E9:C4:55:21:B8

    Signature Algorithm: sha256WithRSAEncryption
         6c:e2:85:ec:db:99:3b:16:38:38:20:51:ca:d9:32:3b:03:13:
         5e:74:70:7b:10:3d:e5:ea:1f:56:75:93:e5:a9:22:d0:9d:28:
         2e:4a:e3:90:d2:97:a6:5c:3f:0b:ad:a9:6a:13:cc:2e:48:bd:
         46:f8:e0:30:89:0e:70:9b:01:b8:86:c8:85:42:9f:d2:45:cd:
         b4:fb:f7:e6:bd:87:e5:5d:7f:b8:2d:cc:a9:e3:77:23:c5:35:
         5b:0b:64:83:a8:01:ea:a1:8d:2b:ca:d1:ba:62:2c:ad:8c:01:
         d2:0c:43:f4:e3:74:dd:ff:bf:45:d6:07:f5:3b:05:d0:ca:c2:
         44:31:e6:74:80:27:6b:ea:a7:9a:5b:1f:45:54:98:b9:a9:5e:
         ea:d9:57:eb:1b:bb:f2:1c:d4:4e:09:e4:52:b0:e6:c8:95:6c:
         25:2d:84:55:e0:97:11:d8:4b:f0:d8:9a:28:f9:e6:7c:9b:76:
         58:28:37:f3:e1:e7:53:ec:ec:6a:82:9f:4e:11:ce:44:18:e3:
         24:bc:27:e0:34:b0:5d:12:6a:f4:28:22:0a:06:33:ee:e8:be:
         e5:8d:6c:5b:db:b1:48:b6:50:a9:af:6b:9c:b0:97:14:1a:5f:
         65:cb:2d:f8:e4:69:51:e5:5d:08:f0:f1:c7:81:6d:3f:da:cc:
         28:17:53:21
-----BEGIN CERTIFICATE-----
MIIDxzCCAq+gAwIBAgIBAzANBgkqhkiG9w0BAQsFADBmMQswCQYDVQQGEwJJTjES
MBAGA1UECAwJVGVsYW5nYW5hMTIwMAYDVQQKDClJbmRpYW4gSW5zdGl0dXRlIG9m
IFRlY2hub2xvZ3ksIEh5ZGVyYWJhZDEPMA0GA1UEAwwGcm9vdENBMB4XDTE3MDQw
MjE1NDUyM1oXDTE4MDQwMjE1NDUyM1owaDELMAkGA1UEBhMCSU4xEjAQBgNVBAgM
CVRlbGFuZ2FuYTEyMDAGA1UECgwpSW5kaWFuIEluc3RpdHV0ZSBvZiBUZWNobm9s
b2d5LCBIeWRlcmFiYWQxETAPBgNVBAMMCElOVEVSQ1NFMIIBIjANBgkqhkiG9w0B
AQEFAAOCAQ8AMIIBCgKCAQEAxazqTqHkxVCsGaT6vp/W1UgIm1aWBLq50j0YEOSh
+4rZqTpuDpr8zCuWHYQ8xFKCyJ+zCvHRT5ellRrZVbDY1tMlf5lcN+9XI10XN2qm
Jq0AF/kY3rXNns2JK4nR9XoQXlKFjGnh8wPe9tvITL9gp3Sxfdid4ltHlGeBdaj0
U0NeH1kEPTzWMg76MzOc1lw+S5xOdTxVVgbRx/9/tnCMsHbqIjy2PbW3DM0Zb78k
F2n2v5b8w8zZ+5AcQxlO1pjfJtvRhuep5VhwKGyNg5jAlcVkBiM1OJ/V8avUaGBV
iEkEVT9KbkOS+tDTZancTmtq3T7dLdt91AvEogm8IsMIKwIDAQABo34wfDAMBgNV
HRMEBTADAQH/MCwGCWCGSAGG+EIBDQQfFh1PcGVuU1NMIEdlbmVyYXRlZCBDZXJ0
aWZpY2F0ZTAdBgNVHQ4EFgQUjymJu6swDfzRn/F1b02n/3HTTCEwHwYDVR0jBBgw
FoAUR1w7XqpwCJ6Br9NInZyh6cRVIbgwDQYJKoZIhvcNAQELBQADggEBAGzihezb
mTsWODggUcrZMjsDE150cHsQPeXqH1Z1k+WpItCdKC5K45DSl6ZcPwutqWoTzC5I
vUb44DCJDnCbAbiGyIVCn9JFzbT79+a9h+Vdf7gtzKnjdyPFNVsLZIOoAeqhjSvK
0bpiLK2MAdIMQ/TjdN3/v0XWB/U7BdDKwkQx5nSAJ2vqp5pbH0VUmLmpXurZV+sb
u/Ic1E4J5FKw5siVbCUthFXglxHYS/DYmij55nybdlgoN/Ph51Ps7GqCn04RzkQY
4yS8J+A0sF0SavQoIgoGM+7ovuWNbFvbsUi2UKmva5ywlxQaX2XLLfjkaVHlXQjw
8ceBbT/azCgXUyE=
-----END CERTIFICATE-----
