Certificate:
    Data:
        Version: 3 (0x2)
        Serial Number: 4 (0x4)
    Signature Algorithm: sha256WithRSAEncryption
        Issuer: C=IN, ST=Telangana, O=Indian Institute of Technology, Hyderabad, CN=rootCA
        Validity
            Not Before: Apr  2 16:43:55 2017 GMT
            Not After : Apr  2 16:43:55 2018 GMT
        Subject: C=IN, ST=Telangana, O=Indian Institute of Technology, Hyderabad, CN=INTEREE
        Subject Public Key Info:
            Public Key Algorithm: rsaEncryption
                Public-Key: (2048 bit)
                Modulus:
                    00:d1:a7:cc:fd:50:5d:65:e7:6d:f5:2a:3a:aa:f7:
                    9c:99:4d:21:67:eb:69:be:83:26:36:de:72:f7:65:
                    56:20:75:fc:14:70:77:3f:82:e3:7e:da:40:a5:6b:
                    78:b2:9d:85:92:87:64:b6:01:cb:a0:17:70:2a:e8:
                    51:7a:9b:e3:14:52:79:92:53:51:3a:c8:d5:ac:78:
                    9d:47:47:c5:98:3b:cf:87:17:8f:d1:4d:b5:35:f1:
                    d7:4a:4b:50:ae:1f:f2:50:ee:15:24:4b:d9:59:35:
                    22:9f:f3:e6:de:54:6c:37:87:6b:a6:fc:e8:28:80:
                    19:24:ca:96:0b:ce:91:48:b6:c1:7a:1d:ee:1a:e3:
                    fd:95:21:3f:93:c9:a2:a3:44:cd:95:c5:6b:0f:39:
                    69:91:79:b9:57:d8:a8:c7:8f:c2:05:7f:4a:d2:e3:
                    69:09:63:c2:c5:a1:db:a1:33:9b:f0:56:1a:4e:fc:
                    fa:15:47:be:42:78:81:b2:5e:48:6d:29:46:4d:9b:
                    3e:ab:b1:8e:01:3a:54:8f:7e:a9:36:d3:ef:29:9a:
                    9d:cf:52:37:83:67:64:89:4b:ef:ae:b8:9d:a6:fa:
                    90:13:77:d2:25:82:ce:4e:cb:b5:a2:a0:dd:a3:53:
                    0d:84:18:30:2d:be:84:5b:a1:10:90:7a:d3:cf:ac:
                    1d:8f
                Exponent: 65537 (0x10001)
        X509v3 extensions:
            X509v3 Basic Constraints: 
                CA:TRUE
            Netscape Comment: 
                OpenSSL Generated Certificate
            X509v3 Subject Key Identifier: 
                D5:A6:9D:65:AA:5A:5D:20:EE:16:30:E1:92:B7:54:57:44:11:46:41
            X509v3 Authority Key Identifier: 
                keyid:47:5C:3B:5E:AA:70:08:9E:81:AF:D3:48:9D:9C:A1:E9:C4:55:21:B8

    Signature Algorithm: sha256WithRSAEncryption
         0c:50:a7:31:ed:f7:32:8e:ed:d8:e7:f7:ae:0c:2c:5c:e7:0e:
         1e:38:9f:fb:62:65:e1:16:3c:ba:0e:45:22:54:13:e7:0b:23:
         06:0c:d9:3f:e1:8a:ef:62:fc:0a:3e:46:f3:aa:54:11:52:cd:
         d0:0a:bd:34:be:c7:1b:d8:89:20:ad:d8:8e:c3:9c:a4:de:e7:
         0d:e0:c7:87:34:cf:77:ee:a2:37:67:6f:09:e8:2e:80:d3:10:
         fc:9c:47:a9:fd:2a:66:f7:70:b2:ce:87:3b:c8:78:c4:95:9b:
         92:9c:63:a2:c2:86:20:6b:88:18:06:0a:f1:8c:2e:54:dd:bf:
         c1:9c:aa:54:85:97:bd:50:69:ec:88:fb:a9:85:31:32:85:44:
         14:d2:17:3c:2e:71:b9:cd:c9:7f:2e:88:34:46:b8:8d:5c:f6:
         cd:85:7c:b6:b1:76:1b:48:60:19:e7:b1:95:ab:39:bb:21:a9:
         db:87:10:c7:e6:22:24:d2:90:f6:64:a1:5f:02:a4:a9:a1:59:
         9f:00:99:a4:46:2a:31:47:21:80:ce:16:34:f8:8d:54:9d:1f:
         a3:69:22:f2:6d:c6:2a:35:e0:8c:b7:a6:72:de:87:a8:e4:18:
         0f:2a:3c:94:6b:e1:b9:7e:9b:cc:35:a8:cf:46:74:25:d5:c9:
         a2:9a:c5:93
-----BEGIN CERTIFICATE-----
MIIDxjCCAq6gAwIBAgIBBDANBgkqhkiG9w0BAQsFADBmMQswCQYDVQQGEwJJTjES
MBAGA1UECAwJVGVsYW5nYW5hMTIwMAYDVQQKDClJbmRpYW4gSW5zdGl0dXRlIG9m
IFRlY2hub2xvZ3ksIEh5ZGVyYWJhZDEPMA0GA1UEAwwGcm9vdENBMB4XDTE3MDQw
MjE2NDM1NVoXDTE4MDQwMjE2NDM1NVowZzELMAkGA1UEBhMCSU4xEjAQBgNVBAgM
CVRlbGFuZ2FuYTEyMDAGA1UECgwpSW5kaWFuIEluc3RpdHV0ZSBvZiBUZWNobm9s
b2d5LCBIeWRlcmFiYWQxEDAOBgNVBAMMB0lOVEVSRUUwggEiMA0GCSqGSIb3DQEB
AQUAA4IBDwAwggEKAoIBAQDRp8z9UF1l5231Kjqq95yZTSFn62m+gyY23nL3ZVYg
dfwUcHc/guN+2kCla3iynYWSh2S2AcugF3Aq6FF6m+MUUnmSU1E6yNWseJ1HR8WY
O8+HF4/RTbU18ddKS1CuH/JQ7hUkS9lZNSKf8+beVGw3h2um/OgogBkkypYLzpFI
tsF6He4a4/2VIT+TyaKjRM2VxWsPOWmReblX2KjHj8IFf0rS42kJY8LFoduhM5vw
VhpO/PoVR75CeIGyXkhtKUZNmz6rsY4BOlSPfqk20+8pmp3PUjeDZ2SJS++uuJ2m
+pATd9Ilgs5Oy7WioN2jUw2EGDAtvoRboRCQetPPrB2PAgMBAAGjfjB8MAwGA1Ud
EwQFMAMBAf8wLAYJYIZIAYb4QgENBB8WHU9wZW5TU0wgR2VuZXJhdGVkIENlcnRp
ZmljYXRlMB0GA1UdDgQWBBTVpp1lqlpdIO4WMOGSt1RXRBFGQTAfBgNVHSMEGDAW
gBRHXDteqnAInoGv00idnKHpxFUhuDANBgkqhkiG9w0BAQsFAAOCAQEADFCnMe33
Mo7t2Of3rgwsXOcOHjif+2Jl4RY8ug5FIlQT5wsjBgzZP+GK72L8Cj5G86pUEVLN
0Aq9NL7HG9iJIK3YjsOcpN7nDeDHhzTPd+6iN2dvCegugNMQ/JxHqf0qZvdwss6H
O8h4xJWbkpxjosKGIGuIGAYK8YwuVN2/wZyqVIWXvVBp7Ij7qYUxMoVEFNIXPC5x
uc3Jfy6INEa4jVz2zYV8trF2G0hgGeexlas5uyGp24cQx+YiJNKQ9mShXwKkqaFZ
nwCZpEYqMUchgM4WNPiNVJ0fo2ki8m3GKjXgjLemct6HqOQYDyo8lGvhuX6bzDWo
z0Z0JdXJoprFkw==
-----END CERTIFICATE-----
